(lp0
(lp1
I1
acnumpy.core.multiarray
scalar
p2
(cnumpy
dtype
p3
(S'f8'
p4
I0
I1
tp5
Rp6
(I3
S'<'
p7
NNNI-1
I-1
I0
tp8
bS',\xf3\x99\xc8\x98vM@'
p9
tp10
Rp11
aa(lp12
I2
ag2
(g6
S' \x7f\n\x82\xe7\xc5N@'
p13
tp14
Rp15
aa(lp16
I3
ag2
(g6
S'\x99\xd6\xf0\xb5x\x97O@'
p17
tp18
Rp19
aa(lp20
I4
ag2
(g6
S'\xd7\xf0\xb5xW6P@'
p21
tp22
Rp23
aa(lp24
I5
ag2
(g6
S'\x8eM]\xa0{\xc4P@'
p25
tp26
Rp27
aa(lp28
I6
ag2
(g6
S'h\x1b\xb7j\xff\x06Q@'
p29
tp30
Rp31
aa(lp32
I7
ag2
(g6
S' \x86\xb6q\xabfQ@'
p33
tp34
Rp35
aa(lp36
I8
ag2
(g6
S'J\x8eT\t\x90\xafQ@'
p37
tp38
Rp39
aa(lp40
I9
ag2
(g6
S'\x0fJ\x87\xa8\x19\xfcQ@'
p41
tp42
Rp43
aa(lp44
I10
ag2
(g6
S'g)\x0fJ\x87hR@'
p45
tp46
Rp47
aa(lp48
I11
ag2
(g6
S"\xae\xd3\x13\x12'\x8bR@"
p49
tp50
Rp51
aa(lp52
I12
ag2
(g6
S'\x8eT\t\x90?\x05S@'
p53
tp54
Rp55
aa(lp56
I13
ag2
(g6
S'\x86\xb6q\xab\xf6OS@'
p57
tp58
Rp59
aa(lp60
I14
ag2
(g6
S'\xde\x95\xf9Ld\xbcS@'
p61
tp62
Rp63
aa(lp64
I15
ag2
(g6
S'\x90?\x05\xc1\xf3\x12T@'
p65
tp66
Rp67
aa(lp68
I16
ag2
(g6
S')\x16\xf6vljT@'
p69
tp70
Rp71
aa(lp72
I17
ag2
(g6
S'\xc7\xad\xda\xbf\x01\xcbT@'
p73
tp74
Rp75
aa(lp76
I18
ag2
(g6
S'.\xde\x95\xf9L$U@'
p77
tp78
Rp79
aa(lp80
I19
ag2
(g6
S'\xea\t\x89\x93\x15\x8dU@'
p81
tp82
Rp83
aa(lp84
I20
ag2
(g6
S'=(\x1d\xa2f\xf0U@'
p85
tp86
Rp87
aa(lp88
I21
ag2
(g6
S'&9R%@NV@'
p89
tp90
Rp91
aa(lp92
I22
ag2
(g6
S'U\x02\xe4OA\xa0V@'
p93
tp94
Rp95
aa(lp96
I23
ag2
(g6
S'\xf8h\x14\x0b{\xdbV@'
p97
tp98
Rp99
aa(lp100
I24
ag2
(g6
S'\x9a\xcfD\xc6\xb4\x16W@'
p101
tp102
Rp103
aa(lp104
I25
ag2
(g6
S'A\xf7h\x14\x0b[W@'
p105
tp106
Rp107
aa(lp108
I26
ag2
(g6
S'>\x1a\xc5\xc2\xde\xaeW@'
p109
tp110
Rp111
aa(lp112
I27
ag2
(g6
S'\xccn\xceR\x1e\xf4W@'
p113
tp114
Rp115
aa(lp116
I28
ag2
(g6
S'\x87\xa8\x19\xccn.X@'
p117
tp118
Rp119
aa(lp120
I29
ag2
(g6
S"\xd3\x13\x12'+ZX@"
p121
tp122
Rp123
aa(lp124
I30
ag2
(g6
S'/\xd0=\x1a\xc5rX@'
p125
tp126
Rp127
aa.