(lp0
(lp1
I1
acnumpy.core.multiarray
scalar
p2
(cnumpy
dtype
p3
(S'f8'
p4
I0
I1
tp5
Rp6
(I3
S'<'
p7
NNNI-1
I-1
I0
tp8
bS'\xa8 x^\x92CM@'
p9
tp10
Rp11
aa(lp12
I2
ag2
(g6
S'\xac\xef\xc3\xd06\xaeN@'
p13
tp14
Rp15
aa(lp16
I3
ag2
(g6
S'\xe2]\x99\xcfDfO@'
p17
tp18
Rp19
aa(lp20
I4
ag2
(g6
S'#\\\xae\xd3\x13bP@'
p21
tp22
Rp23
aa(lp24
I5
ag2
(g6
S'\x85\xbd\x1d\x9b\xba\xe0P@'
p25
tp26
Rp27
aa(lp28
I6
ag2
(g6
S'\xceY\xca\x83\xd21Q@'
p29
tp30
Rp31
aa(lp32
I7
ag2
(g6
S'\xac\xe8\x17\xe1r}Q@'
p33
tp34
Rp35
aa(lp36
I8
ag2
(g6
S'\x96\xf9LdL\xdbQ@'
p37
tp38
Rp39
aa(lp40
I9
ag2
(g6
S'\xfc)\x08\x9e\x974R@'
p41
tp42
Rp43
aa(lp44
I10
ag2
(g6
S'?\x05\xc1\xf3\x92|R@'
p45
tp46
Rp47
aa(lp48
I11
ag2
(g6
S'\x911\xad\xe1k\xb1R@'
p49
tp50
Rp51
aa(lp52
I12
ag2
(g6
S'\x89\x93\x15\xfd"\xfcR@'
p53
tp54
Rp55
aa(lp56
I13
ag2
(g6
S'7n\xd5\xfe\rxS@'
p57
tp58
Rp59
aa(lp60
I14
ag2
(g6
S'\x85\xbd\x1d\x9b\xba\x00T@'
p61
tp62
Rp63
aa(lp64
I15
ag2
(g6
S"\x14\x12'+\xfaET@"
p65
tp66
Rp67
aa(lp68
I16
ag2
(g6
S'bo\xc7\xa6.\xa0T@'
p69
tp70
Rp71
aa(lp72
I17
ag2
(g6
S'dS\x17\xe8\x1e\xfdT@'
p73
tp74
Rp75
aa(lp76
I18
ag2
(g6
S'\xfc)\x08\x9e\x97TU@'
p77
tp78
Rp79
aa(lp80
I19
ag2
(g6
S'\x9b\xc1\xec\xe6,\xb5U@'
p81
tp82
Rp83
aa(lp84
I20
ag2
(g6
S'\x06\xb3\x9b\xb3\x94\x17V@'
p85
tp86
Rp87
aa(lp88
I21
ag2
(g6
S'6|-\xde\x95iV@'
p89
tp90
Rp91
aa(lp92
I22
ag2
(g6
S'8`}\x1f\x86\xc6V@'
p93
tp94
Rp95
aa(lp96
I23
ag2
(g6
S'\x0cm\xe3V\xed\xffV@'
p97
tp98
Rp99
aa(lp100
I24
ag2
(g6
S'6u\x81\xee\xd1HW@'
p101
tp102
Rp103
aa(lp104
I25
ag2
(g6
S'#U\x02\xe4O\x81W@'
p105
tp106
Rp107
aa(lp108
I26
ag2
(g6
S'{B\xe2dE\xbfW@'
p109
tp110
Rp111
aa(lp112
I27
ag2
(g6
S'\xeb\x02\xdd\xa3Q\xfcW@'
p113
tp114
Rp115
aa(lp116
I28
ag2
(g6
S'\n\x89\x93\x15\xfd2X@'
p117
tp118
Rp119
aa(lp120
I29
ag2
(g6
S'\x06\xbaG\xa3XXX@'
p121
tp122
Rp123
aa(lp124
I30
ag2
(g6
S'\x93\x1c\xa9\x12 oX@'
p125
tp126
Rp127
aa.