(lp0
(lp1
I1
acnumpy.core.multiarray
scalar
p2
(cnumpy
dtype
p3
(S'f8'
p4
I0
I1
tp5
Rp6
(I3
S'<'
p7
NNNI-1
I-1
I0
tp8
bS'X\xf6G\xa5\x9cUM@'
p9
tp10
Rp11
aa(lp12
I2
ag2
(g6
S'\x95$\xfe\x03\xd1\xb1N@'
p13
tp14
Rp15
aa(lp16
I3
ag2
(g6
S'qgn\x9f\xcftO@'
p17
tp18
Rp19
aa(lp20
I4
ag2
(g6
S'\x86\x07\xe3\xd7\xefUP@'
p21
tp22
Rp23
aa(lp24
I5
ag2
(g6
S'\x89@\xb5\xe0\x1c\xb5P@'
p25
tp26
Rp27
aa(lp28
I6
ag2
(g6
S'\x86^N$%0Q@'
p29
tp30
Rp31
aa(lp32
I7
ag2
(g6
S'Z\xbe\xe6\xcfMrQ@'
p33
tp34
Rp35
aa(lp36
I8
ag2
(g6
S'\xf8)\x0cYM\xb3Q@'
p37
tp38
Rp39
aa(lp40
I9
ag2
(g6
S'\x96\x951\xe2L\xf4Q@'
p41
tp42
Rp43
aa(lp44
I10
ag2
(g6
S'\x1d\\\xa0M\x8cER@'
p45
tp46
Rp47
aa(lp48
I11
ag2
(g6
S'\xa2"\x0f\xb9\xcb\x96R@'
p49
tp50
Rp51
aa(lp52
I12
ag2
(g6
S'\xdc\xc0\x87\xc2\x9d\xb9R@'
p53
tp54
Rp55
aa(lp56
I13
ag2
(g6
S'\x9c%o7\xaf-S@'
p57
tp58
Rp59
aa(lp60
I14
ag2
(g6
S'w\xd9\x12\xb1)\xb3S@'
p61
tp62
Rp63
aa(lp64
I15
ag2
(g6
S'\x10*\xfft\x04\x10T@'
p65
tp66
Rp67
aa(lp68
I16
ag2
(g6
S'\xfb\xbd\x1a`q\x7fT@'
p69
tp70
Rp71
aa(lp72
I17
ag2
(g6
S'\x16\x9c\xa3\x86^\xceT@'
p73
tp74
Rp75
aa(lp76
I18
ag2
(g6
S'z\xf8\x1c(\x10*U@'
p77
tp78
Rp79
aa(lp80
I19
ag2
(g6
S'\x1d\x0eH\x98\xb8\x8cU@'
p81
tp82
Rp83
aa(lp84
I20
ag2
(g6
S'V\xac\xc0\xa1\x8a\xafU@'
p85
tp86
Rp87
aa(lp88
I21
ag2
(g6
S'\xbb\x08:C<\x0bV@'
p89
tp90
Rp91
aa(lp92
I22
ag2
(g6
S'\xe0\xab\x01\x16\xf7_V@'
p93
tp94
Rp95
aa(lp96
I23
ag2
(g6
S'o7\xaf-\x04\xb7V@'
p97
tp98
Rp99
aa(lp100
I24
ag2
(g6
S'\xd3\x93(\xcf\xb5\x12W@'
p101
tp102
Rp103
aa(lp104
I25
ag2
(g6
S'\x11\xdc\xa6\xbf0WW@'
p105
tp106
Rp107
aa(lp108
I26
ag2
(g6
S'zSY&\x07\x97W@'
p109
tp110
Rp111
aa(lp112
I27
ag2
(g6
S'\\\x93iC"\xc3W@'
p113
tp114
Rp115
aa(lp116
I28
ag2
(g6
S'["6e\xa6\x00X@'
p117
tp118
Rp119
aa(lp120
I29
ag2
(g6
S'\xbb\xd4\xa9\x1f\xaf:X@'
p121
tp122
Rp123
aa(lp124
I30
ag2
(g6
S'\x07\xfd\x9f\x81\x1ciX@'
p125
tp126
Rp127
aa.