(lp0
(lp1
I1
acnumpy.core.multiarray
scalar
p2
(cnumpy
dtype
p3
(S'f8'
p4
I0
I1
tp5
Rp6
(I3
S'<'
p7
NNNI-1
I-1
I0
tp8
bS'\x98\x91`0\x8b\xe1L@'
p9
tp10
Rp11
aa(lp12
I2
ag2
(g6
S'WkL5\xda\xaaN@'
p13
tp14
Rp15
aa(lp16
I3
ag2
(g6
S'?\x1d\x01dO\x95O@'
p17
tp18
Rp19
aa(lp20
I4
ag2
(g6
S'\x02zFu\xddcP@'
p21
tp22
Rp23
aa(lp24
I5
ag2
(g6
S'\xcd\x14\xa0t8\xa0P@'
p25
tp26
Rp27
aa(lp28
I6
ag2
(g6
S'\xb8\xa8\xbb_\xa5\x0fQ@'
p29
tp30
Rp31
aa(lp32
I7
ag2
(g6
S'\xa2<\xd7J\x12\x7fQ@'
p33
tp34
Rp35
aa(lp36
I8
ag2
(g6
S'u\x9co\xf6:\xc1Q@'
p37
tp38
Rp39
aa(lp40
I9
ag2
(g6
S'\x88\xb5\xb9pZ\nR@'
p41
tp42
Rp43
aa(lp44
I10
ag2
(g6
S'QP\x13p\xb5FR@'
p45
tp46
Rp47
aa(lp48
I11
ag2
(g6
S'\xf4e>\xe0]\xa9R@'
p49
tp50
Rp51
aa(lp52
I12
ag2
(g6
S'\xea/\xccU\x14\xe1R@'
p53
tp54
Rp55
aa(lp56
I13
ag2
(g6
S'\xb8t+<\x18?S@'
p57
tp58
Rp59
aa(lp60
I14
ag2
(g6
S'\xbfW\x03,\xee\xbfS@'
p61
tp62
Rp63
aa(lp64
I15
ag2
(g6
S'\xd2pM\xa6\r\tT@'
p65
tp66
Rp67
aa(lp68
I16
ag2
(g6
S'\x88\x10\xf6nQwT@'
p69
tp70
Rp71
aa(lp72
I17
ag2
(g6
S'\xb6x\xfc\xed\xd9\xd1T@'
p73
tp74
Rp75
aa(lp76
I18
ag2
(g6
S'\xcc;LO\xa2<U@'
p77
tp78
Rp79
aa(lp80
I19
ag2
(g6
S'k\xa7q\xd8\xa1}U@'
p81
tp82
Rp83
aa(lp84
I20
ag2
(g6
S'\xbbym!\xb8\xcdU@'
p85
tp86
Rp87
aa(lp88
I21
ag2
(g6
S'\x0cLij\xce\x1dV@'
p89
tp90
Rp91
aa(lp92
I22
ag2
(g6
S'SY&\x07\x17hV@'
p93
tp94
Rp95
aa(lp96
I23
ag2
(g6
S'\xb8\xb5\x9f\xa8\xc8\xc3V@'
p97
tp98
Rp99
aa(lp100
I24
ag2
(g6
S'\xa7d\xf4XZ\x17W@'
p101
tp102
Rp103
aa(lp104
I25
ag2
(g6
S'\x9d.\x82\xce\x10OW@'
p105
tp106
Rp107
aa(lp108
I26
ag2
(g6
S'\x83\x18\x98\xd2\xd4\x9cW@'
p109
tp110
Rp111
aa(lp112
I27
ag2
(g6
S'\x1d\xda\xb7t+\xbcW@'
p113
tp114
Rp115
aa(lp116
I28
ag2
(g6
S'\xc5\n\x1c\xaa\xf8\x02X@'
p117
tp118
Rp119
aa(lp120
I29
ag2
(g6
S'sV\xb9\xa4\xea-X@'
p121
tp122
Rp123
aa(lp124
I30
ag2
(g6
S'\x8a\x8a<\xe4.[X@'
p125
tp126
Rp127
aa.