(lp0
(lp1
I1
acnumpy.core.multiarray
scalar
p2
(cnumpy
dtype
p3
(S'f8'
p4
I0
I1
tp5
Rp6
(I3
S'<'
p7
NNNI-1
I-1
I0
tp8
bS'\x05\xe3\xad\xecs\xa8M@'
p9
tp10
Rp11
aa(lp12
I2
ag2
(g6
S'\x1dR\x13\x8c\xb7\x12O@'
p13
tp14
Rp15
aa(lp16
I3
ag2
(g6
S'\xc1x+\xfb\x1c\x02P@'
p17
tp18
Rp19
aa(lp20
I4
ag2
(g6
S'"5\xc1x+\x97P@'
p21
tp22
Rp23
aa(lp24
I5
ag2
(g6
S'\xbc\x95}\x0e\xa95Q@'
p25
tp26
Rp27
aa(lp28
I6
ag2
(g6
S'\xae\xecsHMLQ@'
p29
tp30
Rp31
aa(lp32
I7
ag2
(g6
S'j\x82\xf1V\xf6\xb5Q@'
p33
tp34
Rp35
aa(lp36
I8
ag2
(g6
S'\xbc\x95}\x0e\xa9\xfdQ@'
p37
tp38
Rp39
aa(lp40
I9
ag2
(g6
S'"5\xc1x+\'R@'
p41
tp42
Rp43
aa(lp44
I10
ag2
(g6
S'\xa0Cj\x82\xf1\x8eR@'
p45
tp46
Rp47
aa(lp48
I11
ag2
(g6
S'\xb8\xb2\xcf!5\xcdR@'
p49
tp50
Rp51
aa(lp52
I12
ag2
(g6
S'tHM0\xde6S@'
p53
tp54
Rp55
aa(lp56
I13
ag2
(g6
S'tHM0\xde\x9aS@'
p57
tp58
Rp59
aa(lp60
I14
ag2
(g6
S'\x05\xe3\xad\xecs\xe4S@'
p61
tp62
Rp63
aa(lp64
I15
ag2
(g6
S'\xc1x+\xfb\x1cNT@'
p65
tp66
Rp67
aa(lp68
I16
ag2
(g6
S'\x9b`\xbc\x95}\x8aT@'
p69
tp70
Rp71
aa(lp72
I17
ag2
(g6
S'\xae\xecsHM\xd0T@'
p73
tp74
Rp75
aa(lp76
I18
ag2
(g6
S'W\xf69\xa4&XU@'
p77
tp78
Rp79
aa(lp80
I19
ag2
(g6
S'\xd4\x04\xe3\xad\xec\xbfU@'
p81
tp82
Rp83
aa(lp84
I20
ag2
(g6
S'\x1dR\x13\x8c\xb7\x16V@'
p85
tp86
Rp87
aa(lp88
I21
ag2
(g6
S'\x91\x9a`\xbc\x95\x8dV@'
p89
tp90
Rp91
aa(lp92
I22
ag2
(g6
S'0\xde\xca>\x87\xc0V@'
p93
tp94
Rp95
aa(lp96
I23
ag2
(g6
S'\xbc\x95}\x0e\xa9\x11W@'
p97
tp98
Rp99
aa(lp100
I24
ag2
(g6
S'\x0f\xa9\t\xc6[YW@'
p101
tp102
Rp103
aa(lp104
I25
ag2
(g6
S'\xae\xecsHM\x8cW@'
p105
tp106
Rp107
aa(lp108
I26
ag2
(g6
S'HM0\xde\xca\xc6W@'
p109
tp110
Rp111
aa(lp112
I27
ag2
(g6
S'\xa4&\x18oe\xffW@'
p113
tp114
Rp115
aa(lp116
I28
ag2
(g6
S':\xa4&\x18oAX@'
p117
tp118
Rp119
aa(lp120
I29
ag2
(g6
S'\xa0Cj\x82\xf1jX@'
p121
tp122
Rp123
aa.