(lp0
(lp1
I1
acnumpy.core.multiarray
scalar
p2
(cnumpy
dtype
p3
(S'f8'
p4
I0
I1
tp5
Rp6
(I3
S'<'
p7
NNNI-1
I-1
I0
tp8
bS'\x96}\x0e\xa9\t\x8eM@'
p9
tp10
Rp11
aa(lp12
I2
ag2
(g6
S'\xa8\t\xc6[\xd9\xffN@'
p13
tp14
Rp15
aa(lp16
I3
ag2
(g6
S'\xfb\x1cR\x13\x8c\x0bP@'
p17
tp18
Rp19
aa(lp20
I4
ag2
(g6
S'\xa4&\x18oe\x93P@'
p21
tp22
Rp23
aa(lp24
I5
ag2
(g6
S'\x8c\xb7\xb2\xcf!\x1dQ@'
p25
tp26
Rp27
aa(lp28
I6
ag2
(g6
S'\x0f\xa9\t\xc6[}Q@'
p29
tp30
Rp31
aa(lp32
I7
ag2
(g6
S'\\\xd9\xe7\x90\x9a\xccQ@'
p33
tp34
Rp35
aa(lp36
I8
ag2
(g6
S'5\xc1x+\xfb\x08R@'
p37
tp38
Rp39
aa(lp40
I9
ag2
(g6
S'\x0f\xa9\t\xc6[ER@'
p41
tp42
Rp43
aa(lp44
I10
ag2
(g6
S',\xfb\x1cR\x13|R@'
p45
tp46
Rp47
aa(lp48
I11
ag2
(g6
S'\xedsHM0\xdeR@'
p49
tp50
Rp51
aa(lp52
I12
ag2
(g6
S'\xbc\x95}\x0e\xa9)S@'
p53
tp54
Rp55
aa(lp56
I13
ag2
(g6
S"'\x18oe\x9f\xafS@"
p57
tp58
Rp59
aa(lp60
I14
ag2
(g6
S'W\xf69\xa4&,T@'
p61
tp62
Rp63
aa(lp64
I15
ag2
(g6
S'\xb8\xb2\xcf!5]T@'
p65
tp66
Rp67
aa(lp68
I16
ag2
(g6
S'\x05\xe3\xad\xecs\xacT@'
p69
tp70
Rp71
aa(lp72
I17
ag2
(g6
S'\xcb>\x87\xd4\x04\x07U@'
p73
tp74
Rp75
aa(lp76
I18
ag2
(g6
S'\t\xc6[\xd9\xe7lU@'
p77
tp78
Rp79
aa(lp80
I19
ag2
(g6
S'\x13\x8c\xb7\xb2\xcf\xc1U@'
p81
tp82
Rp83
aa(lp84
I20
ag2
(g6
S'\xc1x+\xfb\x1cBV@'
p85
tp86
Rp87
aa(lp88
I21
ag2
(g6
S'\x13\x8c\xb7\xb2\xcf\x89V@'
p89
tp90
Rp91
aa(lp92
I22
ag2
(g6
S'`\xbc\x95}\x0e\xd9V@'
p93
tp94
Rp95
aa(lp96
I23
ag2
(g6
S'}\x0e\xa9\t\xc6\x0fW@'
p97
tp98
Rp99
aa(lp100
I24
ag2
(g6
S'\xfb\x1cR\x13\x8cwW@'
p101
tp102
Rp103
aa(lp104
I25
ag2
(g6
S'\xa0Cj\x82\xf1\xa2W@'
p105
tp106
Rp107
aa(lp108
I26
ag2
(g6
S'\xbc\x95}\x0e\xa9\xd9W@'
p109
tp110
Rp111
aa(lp112
I27
ag2
(g6
S'\xa4&\x18oe\xffW@'
p113
tp114
Rp115
aa(lp116
I28
ag2
(g6
S'Dj\x82\xf1V2X@'
p117
tp118
Rp119
aa(lp120
I29
ag2
(g6
S'\xa4&\x18oecX@'
p121
tp122
Rp123
aa.