(lp0
(lp1
I5
acnumpy.core.multiarray
scalar
p2
(cnumpy
dtype
p3
(S'f8'
p4
I0
I1
tp5
Rp6
(I3
S'<'
p7
NNNI-1
I-1
I0
tp8
bS'\xa4\x183!\x80VQ@'
p9
tp10
Rp11
aa(lp12
I6
ag2
(g6
S'\xde\x1ek\x19:`Q@'
p13
tp14
Rp15
aa(lp16
I7
ag2
(g6
S'\xaaP+\xdb\t\xaeQ@'
p17
tp18
Rp19
aa(lp20
I8
ag2
(g6
S'=|\xb3\xa4\x1f\xf2Q@'
p21
tp22
Rp23
aa(lp24
I9
ag2
(g6
S'\xd7\x8c\xf3\x8f\x0f\x0cR@'
p25
tp26
Rp27
aa(lp28
I10
ag2
(g6
S'\x16\xcb#BSmR@'
p29
tp30
Rp31
aa(lp32
I11
ag2
(g6
S'\x90\x0f\x8c\xecP\xd8R@'
p33
tp34
Rp35
aa(lp36
I12
ag2
(g6
S'pC\xb4\xab^)S@'
p37
tp38
Rp39
aa(lp40
I13
ag2
(g6
S'\xd6\x85\xb4X\x1e\x91S@'
p41
tp42
Rp43
aa(lp44
I14
ag2
(g6
S'V\xaf\xd4$\xf6\xd1S@'
p45
tp46
Rp47
aa(lp48
I15
ag2
(g6
S'B\x00\xad\xbfgPT@'
p49
tp50
Rp51
aa(lp52
I16
ag2
(g6
S'"4\xd5~u\xa1T@'
p53
tp54
Rp55
aa(lp56
I17
ag2
(g6
S'\x02h\xfd=\x83\xf2T@'
p57
tp58
Rp59
aa(lp60
I18
ag2
(g6
S'\x0f\xd8\xed\xb1\x96\xa1U@'
p61
tp62
Rp63
aa(lp64
I19
ag2
(g6
S'a\x18\x86a\x18\x06V@'
p65
tp66
Rp67
aa(lp68
I20
ag2
(g6
S'\x01a\xbe\x06\x92wV@'
p69
tp70
Rp71
aa(lp72
I21
ag2
(g6
S'\x94\x8cF\xd0\xa7\xbbV@'
p73
tp74
Rp75
aa(lp76
I22
ag2
(g6
S'a\xbe\x06\x92w\tW@'
p77
tp78
Rp79
aa(lp80
I23
ag2
(g6
S'[\xd9Np\x9d3W@'
p81
tp82
Rp83
aa(lp84
I24
ag2
(g6
S'\x1b\xee^V\tTW@'
p85
tp86
Rp87
aa(lp88
I25
ag2
(g6
S"G*'\x0b\x0f\xb2W@"
p89
tp90
Rp91
aa(lp92
I26
ag2
(g6
S'\x14\\\xe7\xcc\xde\xffW@'
p93
tp94
Rp95
aa(lp96
I27
ag2
(g6
S'\rw/\xab\x04*X@'
p97
tp98
Rp99
aa(lp100
I28
ag2
(g6
S'\x1a\x94\xdf\x86hWX@'
p101
tp102
Rp103
aa(lp104
I29
ag2
(g6
S'g\x9c\x7f|`dX@'
p105
tp106
Rp107
aa.